target datalayout = "e-m:e-p270:32:32-p271:32:32-p272:64:64-i64:64-i128:128-f80:128-n8:16:32:64-S128"
target triple = "x86_64-pc-linux-gnu"

@.str.1 = private unnamed_addr constant [40 x i8] c"SDL_RENDER_OPENGLES2_TEXCOORD_PRECISION\00", align 1
@.str.2 = private unnamed_addr constant [10 x i8] c"undefined\00", align 1
@.str.3 = private unnamed_addr constant [5 x i8] c"high\00", align 1
@.str.4 = private unnamed_addr constant [7 x i8] c"medium\00", align 1

; Function Attrs: nounwind uwtable
define hidden i32 @GLES2_GetTexCoordPrecisionEnumFromHint() #0 {
  %1 = alloca i32, align 4
  %2 = alloca ptr, align 8
  %3 = alloca i32, align 4
  %4 = alloca i32, align 4
  call void @llvm.lifetime.start.p0(i64 8, ptr %2) #3
  %5 = call ptr @SDL_GetHint_REAL(ptr noundef @.str.1)
  store ptr %5, ptr %2, align 8
  call void @llvm.lifetime.start.p0(i64 4, ptr %3) #3
  store i32 1, ptr %3, align 4
  %6 = load ptr, ptr %2, align 8
  %7 = icmp ne ptr %6, null
  br i1 %7, label %8, label %24

8:                                                ; preds = %0
  %9 = load ptr, ptr %2, align 8
  %10 = call i32 @SDL_strcmp_REAL(ptr noundef %9, ptr noundef @.str.2)
  %11 = icmp eq i32 %10, 0
  br i1 %11, label %12, label %13

12:                                               ; preds = %8
  store i32 4, ptr %1, align 4
  store i32 1, ptr %4, align 4
  br label %26

13:                                               ; preds = %8
  %14 = load ptr, ptr %2, align 8
  %15 = call i32 @SDL_strcmp_REAL(ptr noundef %14, ptr noundef @.str.3)
  %16 = icmp eq i32 %15, 0
  br i1 %16, label %17, label %18

17:                                               ; preds = %13
  store i32 3, ptr %1, align 4
  store i32 1, ptr %4, align 4
  br label %26

18:                                               ; preds = %13
  %19 = load ptr, ptr %2, align 8
  %20 = call i32 @SDL_strcmp_REAL(ptr noundef %19, ptr noundef @.str.4)
  %21 = icmp eq i32 %20, 0
  br i1 %21, label %22, label %23

22:                                               ; preds = %18
  store i32 2, ptr %1, align 4
  store i32 1, ptr %4, align 4
  br label %26

23:                                               ; preds = %18
  br label %24

24:                                               ; preds = %23, %0
  %25 = load i32, ptr %3, align 4
  store i32 %25, ptr %1, align 4
  store i32 1, ptr %4, align 4
  br label %26

26:                                               ; preds = %24, %22, %17, %12
  call void @llvm.lifetime.end.p0(i64 4, ptr %3) #3
  call void @llvm.lifetime.end.p0(i64 8, ptr %2) #3
  %27 = load i32, ptr %1, align 4
  ret i32 %27
}