; Function Attrs: nounwind uwtable
define hidden range(i32 1, 5) i32 @GLES2_GetTexCoordPrecisionEnumFromHint() local_unnamed_addr #1 {
  %1 = tail call ptr @SDL_GetHint_REAL(ptr noundef nonnull @.str.1) #3
  %.not = icmp eq ptr %1, null
  br i1 %.not, label %11, label %2

2:                                                ; preds = %0
  %3 = tail call i32 @SDL_strcmp_REAL(ptr noundef nonnull %1, ptr noundef nonnull @.str.2) #3
  %4 = icmp eq i32 %3, 0
  br i1 %4, label %12, label %5

5:                                                ; preds = %2
  %6 = tail call i32 @SDL_strcmp_REAL(ptr noundef nonnull %1, ptr noundef nonnull @.str.3) #3
  %7 = icmp eq i32 %6, 0
  br i1 %7, label %12, label %8

8:                                                ; preds = %5
  %9 = tail call i32 @SDL_strcmp_REAL(ptr noundef nonnull %1, ptr noundef nonnull @.str.4) #3
  %10 = icmp eq i32 %9, 0
  br i1 %10, label %12, label %11

11:                                               ; preds = %8, %0
  br label %12

12:                                               ; preds = %8, %5, %2, %11
  %.0 = phi i32 [ 1, %11 ], [ 4, %2 ], [ 3, %5 ], [ 2, %8 ]
  ret i32 %.0
}